(dp0
S'b2'
p1
S'-0.1'
p2
sS'One Error'
p3
I1
sS'par7'
p4
S'1000'
p5
sS'par6'
p6
S'2'
p7
sS'par5'
p8
S'0'
p9
sS'par4'
p10
S'3'
p11
<<<<<<< HEAD
sS'par3'
=======
S'0.1'
>>>>>>> origin/master
p12
g9
sS'par2'
p13
<<<<<<< HEAD
g11
=======
S'0.5'
p14
>>>>>>> origin/master
sS'par1'
p14
g11
sS'd2'
p15
S'0.1'
p16
<<<<<<< HEAD
=======
S'0.1'
p17
>>>>>>> origin/master
sS'd1'
p17
g9
sS'currentfolder'
p18
<<<<<<< HEAD
S'/home/max/thesis/cgle'
=======
S'-0.001'
>>>>>>> origin/master
p19
sS'xpixels'
p20
S'100'
p21
sS'1d2d'
p22
S'1'
p23
sS'ttotal'
p24
S'10'
p25
<<<<<<< HEAD
=======
S'10'
p26
>>>>>>> origin/master
sS'A'
p26
c__builtin__
complex
p27
(F-0.1
F0.0
tp28
Rp29
sS'C'
<<<<<<< HEAD
p30
g27
(F0.1
=======
p31
g28
(F0.095
>>>>>>> origin/master
F1.0
tp31
Rp32
sS'B'
<<<<<<< HEAD
p33
g27
(F0.0125
F-0.1
tp34
Rp35
sS'D'
p36
g27
(F0.0
F0.1
tp37
Rp38
=======
p34
g28
(F0.125
F0.5
tp35
Rp36
sS'D'
p37
g28
(F-0.001
F0.1
tp38
Rp39
>>>>>>> origin/master
sS'a1'
p39
S'-0.1'
p40
sS'absreal'
p41
g9
sS'tpixels'
p42
S'100'
p43
sS'c2'
p44
g23
sS'c1'
p45
S'0.1'
p46
<<<<<<< HEAD
=======
S'0.095'
p47
>>>>>>> origin/master
sS'tstep'
p47
S'0.005'
p48
sS'xtotal'
p49
S'10'
p50
<<<<<<< HEAD
=======
S'10'
p51
>>>>>>> origin/master
sS'subfolder'
p51
S'subfolder9'
p52
<<<<<<< HEAD
=======
S'subfolder3'
p53
>>>>>>> origin/master
sS'xstep'
p53
S'0.005'
p54
<<<<<<< HEAD
=======
S'0.001'
p55
>>>>>>> origin/master
sS'trialfunction'
p55
g7
sS'a2'
p56
g9
sS'b1'
p57
S'0.0125'
p58
<<<<<<< HEAD
=======
S'0.125'
p59
>>>>>>> origin/master
s.