(dp0
S'xtotal'
p1
S'50'
p2
sS'randamp'
p3
S'5'
p4
sS'1d2d'
p5
S'0'
p6
sS'subfolder'
p7
S'subfolder'
p8
sS'giflen'
p9
S'100'
p10
sS'xstep'
p11
S'0.01'
p12
sS'currentfolder'
p13
S'/home/max/thesis/cgle'
p14
sS'd2'
p15
g6
sS'a1'
p16
S'1'
p17
sS'absreal'
p18
g6
sS'b1'
p19
g17
sS'b2'
p20
g6
sS'c2'
p21
S'-1.5'
p22
sS'c1'
p23
S'-1'
p24
sS'd1'
p25
g6
sS'ttotal'
p26
S'10'
p27
sS'a2'
p28
g6
sS'tstep'
p29
S'0.1'
p30
s.