(dp0
S'b2'
p1
I0
sS'par7'
p2
I1
sS'par6'
p3
I1
sS'par5'
p4
I1
sS'par4'
p5
I1
sS'par3'
p6
I0
sS'par2'
p7
I1
sS'par1'
p8
I1
sS'd2'
p9
I0
sS'd1'
p10
I0
sS'xpixels'
p11
I100
sS'1d2d'
p12
I0
sS'ttotal'
p13
I10
sS'a1'
p14
I1
sS'absreal'
p15
I0
sS'tpixels'
p16
I100
sS'c2'
p17
F-1.5
sS'c1'
p18
I-1
sS'tstep'
p19
F0.0001
sS'xtotal'
p20
I50
sS'subfolder'
p21
g21
sS'xstep'
p22
F0.001
sS'trialfunction'
p23
I0
sS'a2'
p24
I0
sS'b1'
p25
I1
s.